target datalayout = "e-m:e-p270:32:32-p271:32:32-p272:64:64-i64:64-i128:128-f80:128-n8:16:32:64-S128"
target triple = "x86_64-pc-linux-gnu"

%struct.AVCodecContext = type { ptr, i32, i32, ptr, i32, i32, ptr, ptr, ptr, i64, i32, i32, ptr, i32, %struct.AVRational, %struct.AVRational, %struct.AVRational, i32, i32, i32, i32, i32, %struct.AVRational, i32, i32, i32, i32, i32, i32, i32, i32, i32, i32, i32, ptr, ptr, i32, float, float, float, float, float, float, float, float, float, i32, i32, i32, i32, i32, i32, i32, i32, i32, i32, i32, i32, ptr, ptr, ptr, i32, i32, i32, i32, i32, i32, i32, i32, i32, i32, %struct.AVChannelLayout, i32, i32, i32, i32, i32, i32, i32, i32, ptr, i32, i32, i32, float, float, i32, i32, i32, i32, i32, ptr, i64, i64, float, float, i32, i32, ptr, ptr, i32, i32, i32, i32, i32, ptr, ptr, ptr, ptr, i32, i32, [8 x i64], i32, i32, i32, i32, i32, i32, i32, ptr, ptr, i32, i32, i32, i32, i32, i32, i32, i32, i32, i32, ptr, ptr, i32, i32, ptr, ptr, ptr, ptr, i32, i32, i64, i32, i32, i64, ptr, i64, ptr, i32, ptr, i32 }
%struct.AVRational = type { i32, i32 }
%struct.AVChannelLayout = type { i32, i32, %union.anon.0, ptr }
%union.anon.0 = type { i64 }
%struct.AVFrame = type { [8 x ptr], [8 x i32], ptr, i32, i32, i32, i32, i32, %struct.AVRational, i64, i64, %struct.AVRational, i32, ptr, i32, i32, [8 x ptr], ptr, i32, ptr, i32, i32, i32, i32, i32, i32, i32, i64, ptr, i32, ptr, ptr, i64, i64, i64, i64, ptr, %struct.AVChannelLayout, i64 }
%struct.AVPacket = type { ptr, i64, i64, ptr, i32, i32, i32, ptr, i32, i64, i64, ptr, ptr, %struct.AVRational }

@rgb444_masks = internal constant [3 x i32] [i32 3840, i32 240, i32 15], align 4
@rgb565_masks = internal constant [3 x i32] [i32 63488, i32 2016, i32 31], align 4
@monoblack_pal = internal constant [2 x i32] [i32 0, i32 16777215], align 4

; Function Attrs: alwaysinline nounwind uwtable
define internal void @bytestream_put_le16(ptr noundef %0, i32 noundef %1) #4 {
  %3 = alloca ptr, align 8
  %4 = alloca i32, align 4
  store ptr %0, ptr %3, align 8, !tbaa !44
  store i32 %1, ptr %4, align 4, !tbaa !35
  %5 = load i32, ptr %4, align 4, !tbaa !35
  %6 = trunc i32 %5 to i16
  %7 = load ptr, ptr %3, align 8, !tbaa !44
  %8 = load ptr, ptr %7, align 8, !tbaa !36
  store i16 %6, ptr %8, align 1, !tbaa !46
  %9 = load ptr, ptr %3, align 8, !tbaa !44
  %10 = load ptr, ptr %9, align 8, !tbaa !36
  %11 = getelementptr inbounds i8, ptr %10, i64 2
  store ptr %11, ptr %9, align 8, !tbaa !36
  ret void
}

; Function Attrs: alwaysinline nounwind uwtable
define internal void @bytestream_put_le32(ptr noundef %0, i32 noundef %1) #4 {
  %3 = alloca ptr, align 8
  %4 = alloca i32, align 4
  store ptr %0, ptr %3, align 8, !tbaa !44
  store i32 %1, ptr %4, align 4, !tbaa !35
  %5 = load i32, ptr %4, align 4, !tbaa !35
  %6 = load ptr, ptr %3, align 8, !tbaa !44
  %7 = load ptr, ptr %6, align 8, !tbaa !36
  store i32 %5, ptr %7, align 1, !tbaa !46
  %8 = load ptr, ptr %3, align 8, !tbaa !44
  %9 = load ptr, ptr %8, align 8, !tbaa !36
  %10 = getelementptr inbounds i8, ptr %9, i64 4
  store ptr %10, ptr %8, align 8, !tbaa !36
  ret void
}

; Function Attrs: alwaysinline nounwind uwtable
define internal void @bytestream_put_byte(ptr noundef %0, i32 noundef %1) #4 {
  %3 = alloca ptr, align 8
  %4 = alloca i32, align 4
  store ptr %0, ptr %3, align 8, !tbaa !44
  store i32 %1, ptr %4, align 4, !tbaa !35
  br label %5

5:                                                ; preds = %2
  %6 = load i32, ptr %4, align 4, !tbaa !35
  %7 = trunc i32 %6 to i8
  %8 = load ptr, ptr %3, align 8, !tbaa !44
  %9 = load ptr, ptr %8, align 8, !tbaa !36
  %10 = getelementptr inbounds i8, ptr %9, i64 0
  store i8 %7, ptr %10, align 1, !tbaa !46
  br label %11

11:                                               ; preds = %5
  %12 = load ptr, ptr %3, align 8, !tbaa !44
  %13 = load ptr, ptr %12, align 8, !tbaa !36
  %14 = getelementptr inbounds i8, ptr %13, i64 1
  store ptr %14, ptr %12, align 8, !tbaa !36
  ret void
}

; Function Attrs: nounwind uwtable
define internal i32 @bmp_encode_frame(ptr noundef %0, ptr noundef %1, ptr noundef %2, ptr noundef %3) #1 {
  %5 = alloca i32, align 4
  %6 = alloca ptr, align 8
  %7 = alloca ptr, align 8
  %8 = alloca ptr, align 8
  %9 = alloca ptr, align 8
  %10 = alloca ptr, align 8
  %11 = alloca i32, align 4
  %12 = alloca i32, align 4
  %13 = alloca i32, align 4
  %14 = alloca i32, align 4
  %15 = alloca i32, align 4
  %16 = alloca i32, align 4
  %17 = alloca ptr, align 8
  %18 = alloca [256 x i32], align 16
  %19 = alloca i32, align 4
  %20 = alloca i32, align 4
  %21 = alloca i32, align 4
  %22 = alloca i32, align 4
  %23 = alloca ptr, align 8
  %24 = alloca ptr, align 8
  %25 = alloca i32, align 4
  store ptr %0, ptr %6, align 8, !tbaa !4
  store ptr %1, ptr %7, align 8, !tbaa !30
  store ptr %2, ptr %8, align 8, !tbaa !32
  store ptr %3, ptr %9, align 8, !tbaa !34
  call void @llvm.lifetime.start.p0(i64 8, ptr %10) #7
  %26 = load ptr, ptr %8, align 8, !tbaa !32
  store ptr %26, ptr %10, align 8, !tbaa !32
  call void @llvm.lifetime.start.p0(i64 4, ptr %11) #7
  call void @llvm.lifetime.start.p0(i64 4, ptr %12) #7
  call void @llvm.lifetime.start.p0(i64 4, ptr %13) #7
  call void @llvm.lifetime.start.p0(i64 4, ptr %14) #7
  call void @llvm.lifetime.start.p0(i64 4, ptr %15) #7
  call void @llvm.lifetime.start.p0(i64 4, ptr %16) #7
  call void @llvm.lifetime.start.p0(i64 8, ptr %17) #7
  store ptr null, ptr %17, align 8, !tbaa !34
  call void @llvm.lifetime.start.p0(i64 1024, ptr %18) #7
  call void @llvm.lifetime.start.p0(i64 4, ptr %19) #7
  call void @llvm.lifetime.start.p0(i64 4, ptr %20) #7
  store i32 0, ptr %20, align 4, !tbaa !35
  call void @llvm.lifetime.start.p0(i64 4, ptr %21) #7
  store i32 0, ptr %21, align 4, !tbaa !35
  call void @llvm.lifetime.start.p0(i64 4, ptr %22) #7
  %27 = load ptr, ptr %6, align 8, !tbaa !4
  %28 = getelementptr inbounds nuw %struct.AVCodecContext, ptr %27, i32 0, i32 114
  %29 = load i32, ptr %28, align 8, !tbaa !29
  store i32 %29, ptr %22, align 4, !tbaa !35
  call void @llvm.lifetime.start.p0(i64 8, ptr %23) #7
  call void @llvm.lifetime.start.p0(i64 8, ptr %24) #7
  %30 = load ptr, ptr %6, align 8, !tbaa !4
  %31 = getelementptr inbounds nuw %struct.AVCodecContext, ptr %30, i32 0, i32 23
  %32 = load i32, ptr %31, align 8, !tbaa !9
  switch i32 %32, label %48 [
    i32 52, label %33
    i32 37, label %34
    i32 20, label %35
    i32 17, label %35
    i32 22, label %35
    i32 19, label %35
    i32 8, label %35
    i32 11, label %42
    i32 10, label %47
  ]

33:                                               ; preds = %4
  store i32 3, ptr %21, align 4, !tbaa !35
  store ptr @rgb444_masks, ptr %17, align 8, !tbaa !34
  store i32 3, ptr %20, align 4, !tbaa !35
  br label %48

34:                                               ; preds = %4
  store i32 3, ptr %21, align 4, !tbaa !35
  store ptr @rgb565_masks, ptr %17, align 8, !tbaa !34
  store i32 3, ptr %20, align 4, !tbaa !35
  br label %48

35:                                               ; preds = %4, %4, %4, %4, %4
  %36 = getelementptr inbounds [256 x i32], ptr %18, i64 0, i64 0
  %37 = load ptr, ptr %6, align 8, !tbaa !4
  %38 = getelementptr inbounds nuw %struct.AVCodecContext, ptr %37, i32 0, i32 23
  %39 = load i32, ptr %38, align 8, !tbaa !9
  %40 = call i32 @avpriv_set_systematic_pal2(ptr noundef %36, i32 noundef %39)
  %41 = getelementptr inbounds [256 x i32], ptr %18, i64 0, i64 0
  store ptr %41, ptr %17, align 8, !tbaa !34
  br label %48

42:                                               ; preds = %4
  %43 = load ptr, ptr %10, align 8, !tbaa !32
  %44 = getelementptr inbounds nuw %struct.AVFrame, ptr %43, i32 0, i32 0
  %45 = getelementptr inbounds [8 x ptr], ptr %44, i64 0, i64 1
  %46 = load ptr, ptr %45, align 8, !tbaa !36
  store ptr %46, ptr %17, align 8, !tbaa !34
  br label %48

47:                                               ; preds = %4
  store ptr @monoblack_pal, ptr %17, align 8, !tbaa !34
  br label %48

48:                                               ; preds = %4, %47, %42, %35, %34, %33
  %49 = load ptr, ptr %17, align 8, !tbaa !34
  %50 = icmp ne ptr %49, null
  br i1 %50, label %51, label %57

51:                                               ; preds = %48
  %52 = load i32, ptr %20, align 4, !tbaa !35
  %53 = icmp ne i32 %52, 0
  br i1 %53, label %57, label %54

54:                                               ; preds = %51
  %55 = load i32, ptr %22, align 4, !tbaa !35
  %56 = shl i32 1, %55
  store i32 %56, ptr %20, align 4, !tbaa !35
  br label %57

57:                                               ; preds = %54, %51, %48
  %58 = load ptr, ptr %6, align 8, !tbaa !4
  %59 = getelementptr inbounds nuw %struct.AVCodecContext, ptr %58, i32 0, i32 18
  %60 = load i32, ptr %59, align 8, !tbaa !37
  %61 = sext i32 %60 to i64
  %62 = load i32, ptr %22, align 4, !tbaa !35
  %63 = sext i32 %62 to i64
  %64 = mul nsw i64 %61, %63
  %65 = add nsw i64 %64, 7
  %66 = ashr i64 %65, 3
  %67 = trunc i64 %66 to i32
  store i32 %67, ptr %12, align 4, !tbaa !35
  %68 = load i32, ptr %12, align 4, !tbaa !35
  %69 = sub nsw i32 4, %68
  %70 = and i32 %69, 3
  store i32 %70, ptr %19, align 4, !tbaa !35
  %71 = load ptr, ptr %6, align 8, !tbaa !4
  %72 = getelementptr inbounds nuw %struct.AVCodecContext, ptr %71, i32 0, i32 19
  %73 = load i32, ptr %72, align 4, !tbaa !38
  %74 = load i32, ptr %12, align 4, !tbaa !35
  %75 = load i32, ptr %19, align 4, !tbaa !35
  %76 = add nsw i32 %74, %75
  %77 = mul nsw i32 %73, %76
  store i32 %77, ptr %11, align 4, !tbaa !35
  %78 = load i32, ptr %20, align 4, !tbaa !35
  %79 = shl i32 %78, 2
  %80 = add nsw i32 54, %79
  store i32 %80, ptr %15, align 4, !tbaa !35
  %81 = load i32, ptr %11, align 4, !tbaa !35
  %82 = load i32, ptr %15, align 4, !tbaa !35
  %83 = add nsw i32 %81, %82
  store i32 %83, ptr %13, align 4, !tbaa !35
  %84 = load ptr, ptr %6, align 8, !tbaa !4
  %85 = load ptr, ptr %7, align 8, !tbaa !30
  %86 = load i32, ptr %13, align 4, !tbaa !35
  %87 = sext i32 %86 to i64
  %88 = call i32 @ff_get_encode_buffer(ptr noundef %84, ptr noundef %85, i64 noundef %87, i32 noundef 0)
  store i32 %88, ptr %16, align 4, !tbaa !35
  %89 = icmp slt i32 %88, 0
  br i1 %89, label %90, label %92

90:                                               ; preds = %57
  %91 = load i32, ptr %16, align 4, !tbaa !35
  store i32 %91, ptr %5, align 4
  store i32 1, ptr %25, align 4
  br label %178

92:                                               ; preds = %57
  %93 = load ptr, ptr %7, align 8, !tbaa !30
  %94 = getelementptr inbounds nuw %struct.AVPacket, ptr %93, i32 0, i32 3
  %95 = load ptr, ptr %94, align 8, !tbaa !39
  store ptr %95, ptr %24, align 8, !tbaa !36
  call void @bytestream_put_byte(ptr noundef %24, i32 noundef 66)
  call void @bytestream_put_byte(ptr noundef %24, i32 noundef 77)
  %96 = load i32, ptr %13, align 4, !tbaa !35
  call void @bytestream_put_le32(ptr noundef %24, i32 noundef %96)
  call void @bytestream_put_le16(ptr noundef %24, i32 noundef 0)
  call void @bytestream_put_le16(ptr noundef %24, i32 noundef 0)
  %97 = load i32, ptr %15, align 4, !tbaa !35
  call void @bytestream_put_le32(ptr noundef %24, i32 noundef %97)
  call void @bytestream_put_le32(ptr noundef %24, i32 noundef 40)
  %98 = load ptr, ptr %6, align 8, !tbaa !4
  %99 = getelementptr inbounds nuw %struct.AVCodecContext, ptr %98, i32 0, i32 18
  %100 = load i32, ptr %99, align 8, !tbaa !37
  call void @bytestream_put_le32(ptr noundef %24, i32 noundef %100)
  %101 = load ptr, ptr %6, align 8, !tbaa !4
  %102 = getelementptr inbounds nuw %struct.AVCodecContext, ptr %101, i32 0, i32 19
  %103 = load i32, ptr %102, align 4, !tbaa !38
  call void @bytestream_put_le32(ptr noundef %24, i32 noundef %103)
  call void @bytestream_put_le16(ptr noundef %24, i32 noundef 1)
  %104 = load i32, ptr %22, align 4, !tbaa !35
  call void @bytestream_put_le16(ptr noundef %24, i32 noundef %104)
  %105 = load i32, ptr %21, align 4, !tbaa !35
  call void @bytestream_put_le32(ptr noundef %24, i32 noundef %105)
  %106 = load i32, ptr %11, align 4, !tbaa !35
  call void @bytestream_put_le32(ptr noundef %24, i32 noundef %106)
  call void @bytestream_put_le32(ptr noundef %24, i32 noundef 0)
  call void @bytestream_put_le32(ptr noundef %24, i32 noundef 0)
  call void @bytestream_put_le32(ptr noundef %24, i32 noundef 0)
  call void @bytestream_put_le32(ptr noundef %24, i32 noundef 0)
  store i32 0, ptr %14, align 4, !tbaa !35
  br label %107

107:                                              ; preds = %118, %92
  %108 = load i32, ptr %14, align 4, !tbaa !35
  %109 = load i32, ptr %20, align 4, !tbaa !35
  %110 = icmp slt i32 %108, %109
  br i1 %110, label %111, label %121

111:                                              ; preds = %107
  %112 = load ptr, ptr %17, align 8, !tbaa !34
  %113 = load i32, ptr %14, align 4, !tbaa !35
  %114 = sext i32 %113 to i64
  %115 = getelementptr inbounds i32, ptr %112, i64 %114
  %116 = load i32, ptr %115, align 4, !tbaa !35
  %117 = and i32 %116, 16777215
  call void @bytestream_put_le32(ptr noundef %24, i32 noundef %117)
  br label %118

118:                                              ; preds = %111
  %119 = load i32, ptr %14, align 4, !tbaa !35
  %120 = add nsw i32 %119, 1
  store i32 %120, ptr %14, align 4, !tbaa !35
  br label %107, !llvm.loop !41

121:                                              ; preds = %107
  %122 = load ptr, ptr %10, align 8, !tbaa !32
  %123 = getelementptr inbounds nuw %struct.AVFrame, ptr %122, i32 0, i32 0
  %124 = getelementptr inbounds [8 x ptr], ptr %123, i64 0, i64 0
  %125 = load ptr, ptr %124, align 8, !tbaa !36
  %126 = load ptr, ptr %6, align 8, !tbaa !4
  %127 = getelementptr inbounds nuw %struct.AVCodecContext, ptr %126, i32 0, i32 19
  %128 = load i32, ptr %127, align 4, !tbaa !38
  %129 = sub nsw i32 %128, 1
  %130 = load ptr, ptr %10, align 8, !tbaa !32
  %131 = getelementptr inbounds nuw %struct.AVFrame, ptr %130, i32 0, i32 1
  %132 = getelementptr inbounds [8 x i32], ptr %131, i64 0, i64 0
  %133 = load i32, ptr %132, align 8, !tbaa !35
  %134 = mul nsw i32 %129, %133
  %135 = sext i32 %134 to i64
  %136 = getelementptr inbounds i8, ptr %125, i64 %135
  store ptr %136, ptr %23, align 8, !tbaa !36
  %137 = load ptr, ptr %7, align 8, !tbaa !30
  %138 = getelementptr inbounds nuw %struct.AVPacket, ptr %137, i32 0, i32 3
  %139 = load ptr, ptr %138, align 8, !tbaa !39
  %140 = load i32, ptr %15, align 4, !tbaa !35
  %141 = sext i32 %140 to i64
  %142 = getelementptr inbounds i8, ptr %139, i64 %141
  store ptr %142, ptr %24, align 8, !tbaa !36
  store i32 0, ptr %14, align 4, !tbaa !35
  br label %143

143:                                              ; preds = %173, %121
  %144 = load i32, ptr %14, align 4, !tbaa !35
  %145 = load ptr, ptr %6, align 8, !tbaa !4
  %146 = getelementptr inbounds nuw %struct.AVCodecContext, ptr %145, i32 0, i32 19
  %147 = load i32, ptr %146, align 4, !tbaa !38
  %148 = icmp slt i32 %144, %147
  br i1 %148, label %149, label %176

149:                                              ; preds = %143
  %150 = load ptr, ptr %24, align 8, !tbaa !36
  %151 = load ptr, ptr %23, align 8, !tbaa !36
  %152 = load i32, ptr %12, align 4, !tbaa !35
  %153 = sext i32 %152 to i64
  call void @llvm.memcpy.p0.p0.i64(ptr align 1 %150, ptr align 1 %151, i64 %153, i1 false)
  %154 = load i32, ptr %12, align 4, !tbaa !35
  %155 = load ptr, ptr %24, align 8, !tbaa !36
  %156 = sext i32 %154 to i64
  %157 = getelementptr inbounds i8, ptr %155, i64 %156
  store ptr %157, ptr %24, align 8, !tbaa !36
  %158 = load ptr, ptr %24, align 8, !tbaa !36
  %159 = load i32, ptr %19, align 4, !tbaa !35
  %160 = sext i32 %159 to i64
  call void @llvm.memset.p0.i64(ptr align 1 %158, i8 0, i64 %160, i1 false)
  %161 = load i32, ptr %19, align 4, !tbaa !35
  %162 = load ptr, ptr %24, align 8, !tbaa !36
  %163 = sext i32 %161 to i64
  %164 = getelementptr inbounds i8, ptr %162, i64 %163
  store ptr %164, ptr %24, align 8, !tbaa !36
  %165 = load ptr, ptr %10, align 8, !tbaa !32
  %166 = getelementptr inbounds nuw %struct.AVFrame, ptr %165, i32 0, i32 1
  %167 = getelementptr inbounds [8 x i32], ptr %166, i64 0, i64 0
  %168 = load i32, ptr %167, align 8, !tbaa !35
  %169 = load ptr, ptr %23, align 8, !tbaa !36
  %170 = sext i32 %168 to i64
  %171 = sub i64 0, %170
  %172 = getelementptr inbounds i8, ptr %169, i64 %171
  store ptr %172, ptr %23, align 8, !tbaa !36
  br label %173

173:                                              ; preds = %149
  %174 = load i32, ptr %14, align 4, !tbaa !35
  %175 = add nsw i32 %174, 1
  store i32 %175, ptr %14, align 4, !tbaa !35
  br label %143, !llvm.loop !43

176:                                              ; preds = %143
  %177 = load ptr, ptr %9, align 8, !tbaa !34
  store i32 1, ptr %177, align 4, !tbaa !35
  store i32 0, ptr %5, align 4
  store i32 1, ptr %25, align 4
  br label %178

178:                                              ; preds = %176, %90
  call void @llvm.lifetime.end.p0(i64 8, ptr %24) #7
  call void @llvm.lifetime.end.p0(i64 8, ptr %23) #7
  call void @llvm.lifetime.end.p0(i64 4, ptr %22) #7
  call void @llvm.lifetime.end.p0(i64 4, ptr %21) #7
  call void @llvm.lifetime.end.p0(i64 4, ptr %20) #7
  call void @llvm.lifetime.end.p0(i64 4, ptr %19) #7
  call void @llvm.lifetime.end.p0(i64 1024, ptr %18) #7
  call void @llvm.lifetime.end.p0(i64 8, ptr %17) #7
  call void @llvm.lifetime.end.p0(i64 4, ptr %16) #7
  call void @llvm.lifetime.end.p0(i64 4, ptr %15) #7
  call void @llvm.lifetime.end.p0(i64 4, ptr %14) #7
  call void @llvm.lifetime.end.p0(i64 4, ptr %13) #7
  call void @llvm.lifetime.end.p0(i64 4, ptr %12) #7
  call void @llvm.lifetime.end.p0(i64 4, ptr %11) #7
  call void @llvm.lifetime.end.p0(i64 8, ptr %10) #7
  %179 = load i32, ptr %5, align 4
  ret i32 %179
}