; Function Attrs: nounwind uwtable
define internal range(i32 -2147483648, 1) i32 @bmp_encode_frame(ptr noundef %0, ptr noundef %1, ptr noundef readonly captures(none) %2, ptr noundef writeonly captures(none) %3) #1 {
  %5 = alloca [256 x i32], align 16
  call void @llvm.lifetime.start.p0(i64 1024, ptr nonnull %5) #6
  %6 = getelementptr inbounds nuw i8, ptr %0, i64 648
  %7 = load i32, ptr %6, align 8, !tbaa !27
  %8 = getelementptr inbounds nuw i8, ptr %0, i64 136
  %9 = load i32, ptr %8, align 8, !tbaa !4
  switch i32 %9, label %18 [
    i32 52, label %10
    i32 37, label %11
    i32 20, label %12
    i32 17, label %12
    i32 22, label %12
    i32 19, label %12
    i32 8, label %12
    i32 11, label %14
    i32 10, label %17
  ]

10:                                               ; preds = %4
  br label %18

11:                                               ; preds = %4
  br label %18

12:                                               ; preds = %4, %4, %4, %4, %4
  %13 = call i32 @avpriv_set_systematic_pal2(ptr noundef nonnull %5, i32 noundef %9) #6
  br label %18

14:                                               ; preds = %4
  %15 = getelementptr inbounds nuw i8, ptr %2, i64 8
  %16 = load ptr, ptr %15, align 8, !tbaa !28
  br label %18

17:                                               ; preds = %4
  br label %18

18:                                               ; preds = %17, %14, %12, %11, %10, %4
  %.056 = phi ptr [ null, %4 ], [ @monoblack_pal, %17 ], [ %16, %14 ], [ %5, %12 ], [ @rgb565_masks, %11 ], [ @rgb444_masks, %10 ]
  %19 = phi i1 [ false, %4 ], [ false, %17 ], [ false, %14 ], [ false, %12 ], [ true, %11 ], [ true, %10 ]
  %.052 = phi i32 [ 0, %4 ], [ 0, %17 ], [ 0, %14 ], [ 0, %12 ], [ 3, %11 ], [ 3, %10 ]
  %20 = icmp eq ptr %.056, null
  %or.cond = or i1 %20, %19
  %21 = shl nuw i32 1, %7
  %spec.select = select i1 %or.cond, i32 %.052, i32 %21
  %22 = getelementptr inbounds nuw i8, ptr %0, i64 112
  %23 = load i32, ptr %22, align 8, !tbaa !29
  %24 = sext i32 %23 to i64
  %25 = sext i32 %7 to i64
  %26 = mul nsw i64 %24, %25
  %27 = add nsw i64 %26, 7
  %28 = lshr i64 %27, 3
  %29 = trunc i64 %28 to i32
  %30 = sub i32 0, %29
  %31 = and i32 %30, 3
  %32 = getelementptr inbounds nuw i8, ptr %0, i64 116
  %33 = load i32, ptr %32, align 4, !tbaa !30
  %34 = add nsw i32 %31, %29
  %35 = mul nsw i32 %34, %33
  %36 = shl i32 %spec.select, 2
  %37 = add nsw i32 %36, 54
  %38 = add nsw i32 %35, %37
  %39 = sext i32 %38 to i64
  %40 = call i32 @ff_get_encode_buffer(ptr noundef nonnull %0, ptr noundef %1, i64 noundef %39, i32 noundef 0) #6
  %41 = icmp slt i32 %40, 0
  br i1 %41, label %91, label %42

42:                                               ; preds = %18
  %43 = getelementptr inbounds nuw i8, ptr %1, i64 24
  %44 = load ptr, ptr %43, align 8, !tbaa !31
  store i8 66, ptr %44, align 1, !tbaa !33
  %45 = getelementptr inbounds nuw i8, ptr %44, i64 1
  store i8 77, ptr %45, align 1, !tbaa !33
  %46 = getelementptr inbounds nuw i8, ptr %44, i64 2
  store i32 %38, ptr %46, align 1, !tbaa !33
  %47 = getelementptr inbounds nuw i8, ptr %44, i64 6
  store i16 0, ptr %47, align 1, !tbaa !33
  %48 = getelementptr inbounds nuw i8, ptr %44, i64 8
  store i16 0, ptr %48, align 1, !tbaa !33
  %49 = getelementptr inbounds nuw i8, ptr %44, i64 10
  store i32 %37, ptr %49, align 1, !tbaa !33
  %50 = getelementptr inbounds nuw i8, ptr %44, i64 14
  store i32 40, ptr %50, align 1, !tbaa !33
  %51 = getelementptr inbounds nuw i8, ptr %44, i64 18
  %52 = load i32, ptr %22, align 8, !tbaa !29
  store i32 %52, ptr %51, align 1, !tbaa !33
  %53 = getelementptr inbounds nuw i8, ptr %44, i64 22
  %54 = load i32, ptr %32, align 4, !tbaa !30
  store i32 %54, ptr %53, align 1, !tbaa !33
  %55 = getelementptr inbounds nuw i8, ptr %44, i64 26
  store i16 1, ptr %55, align 1, !tbaa !33
  %56 = getelementptr inbounds nuw i8, ptr %44, i64 28
  %57 = trunc i32 %7 to i16
  store i16 %57, ptr %56, align 1, !tbaa !33
  %58 = getelementptr inbounds nuw i8, ptr %44, i64 30
  store i32 %.052, ptr %58, align 1, !tbaa !33
  %59 = getelementptr inbounds nuw i8, ptr %44, i64 34
  store i32 %35, ptr %59, align 1, !tbaa !33
  %60 = getelementptr inbounds nuw i8, ptr %44, i64 38
  %61 = icmp sgt i32 %spec.select, 0
  call void @llvm.memset.p0.i64(ptr noundef nonnull align 1 dereferenceable(16) %60, i8 0, i64 16, i1 false)
  br i1 %61, label %.lr.ph.preheader, label %._crit_edge

.lr.ph.preheader:                                 ; preds = %42
  %62 = getelementptr inbounds nuw i8, ptr %44, i64 54
  %wide.trip.count = zext nneg i32 %spec.select to i64
  br label %.lr.ph

.lr.ph:                                           ; preds = %.lr.ph.preheader, %.lr.ph
  %indvars.iv = phi i64 [ 0, %.lr.ph.preheader ], [ %indvars.iv.next, %.lr.ph ]
  %.09697 = phi ptr [ %62, %.lr.ph.preheader ], [ %66, %.lr.ph ]
  %63 = getelementptr inbounds nuw i32, ptr %.056, i64 %indvars.iv
  %64 = load i32, ptr %63, align 4, !tbaa !34
  %65 = and i32 %64, 16777215
  store i32 %65, ptr %.09697, align 1, !tbaa !33
  %66 = getelementptr inbounds nuw i8, ptr %.09697, i64 4
  %indvars.iv.next = add nuw nsw i64 %indvars.iv, 1
  %exitcond.not = icmp eq i64 %indvars.iv.next, %wide.trip.count
  br i1 %exitcond.not, label %._crit_edge, label %.lr.ph, !llvm.loop !35

._crit_edge:                                      ; preds = %.lr.ph, %42
  %67 = getelementptr inbounds nuw i8, ptr %2, i64 64
  %68 = load i32, ptr %32, align 4, !tbaa !30
  %69 = icmp sgt i32 %68, 0
  br i1 %69, label %.lr.ph103, label %._crit_edge104

.lr.ph103:                                        ; preds = %._crit_edge
  %70 = load ptr, ptr %43, align 8, !tbaa !31
  %71 = sext i32 %37 to i64
  %72 = getelementptr inbounds i8, ptr %70, i64 %71
  %73 = load ptr, ptr %2, align 8, !tbaa !28
  %74 = add nsw i32 %68, -1
  %75 = load i32, ptr %67, align 8, !tbaa !34
  %76 = mul nsw i32 %74, %75
  %77 = sext i32 %76 to i64
  %78 = getelementptr inbounds i8, ptr %73, i64 %77
  %sext = shl i64 %28, 32
  %79 = ashr exact i64 %sext, 32
  %80 = zext nneg i32 %31 to i64
  br label %81

81:                                               ; preds = %.lr.ph103, %81
  %.0101 = phi ptr [ %78, %.lr.ph103 ], [ %87, %81 ]
  %.155100 = phi i32 [ 0, %.lr.ph103 ], [ %88, %81 ]
  %.199 = phi ptr [ %72, %.lr.ph103 ], [ %83, %81 ]
  call void @llvm.memcpy.p0.p0.i64(ptr align 1 %.199, ptr align 1 %.0101, i64 %79, i1 false)
  %82 = getelementptr inbounds i8, ptr %.199, i64 %79
  call void @llvm.memset.p0.i64(ptr align 1 %82, i8 0, i64 %80, i1 false)
  %83 = getelementptr inbounds nuw i8, ptr %82, i64 %80
  %84 = load i32, ptr %67, align 8, !tbaa !34
  %85 = sext i32 %84 to i64
  %86 = sub nsw i64 0, %85
  %87 = getelementptr inbounds i8, ptr %.0101, i64 %86
  %88 = add nuw nsw i32 %.155100, 1
  %89 = load i32, ptr %32, align 4, !tbaa !30
  %90 = icmp slt i32 %88, %89
  br i1 %90, label %81, label %._crit_edge104, !llvm.loop !37

._crit_edge104:                                   ; preds = %81, %._crit_edge
  store i32 1, ptr %3, align 4, !tbaa !34
  br label %91

91:                                               ; preds = %18, %._crit_edge104
  %.051 = phi i32 [ 0, %._crit_edge104 ], [ %40, %18 ]
  call void @llvm.lifetime.end.p0(i64 1024, ptr nonnull %5) #6
  ret i32 %.051
}